
riscv_arithmetic_basic_test_0.o:     file format elf32-littleriscv


Disassembly of section .text:

80000000 <_start>:
80000000:	f14022f3          	csrr	t0,mhartid
80000004:	00000313          	li	t1,0
80000008:	00628263          	beq	t0,t1,8000000c <_start+0xc>
8000000c:	00000f97          	auipc	t6,0x0
80000010:	00cf8f93          	addi	t6,t6,12 # 80000018 <h0_start>
80000014:	000f8067          	jr	t6

80000018 <h0_start>:
80000018:	40000a37          	lui	s4,0x40000
8000001c:	100a0a13          	addi	s4,s4,256 # 40000100 <_start-0x3fffff00>
80000020:	301a1073          	csrw	misa,s4

80000024 <kernel_sp>:
80000024:	0000bf17          	auipc	t5,0xb
80000028:	c60f0f13          	addi	t5,t5,-928 # 8000ac84 <kernel_stack_end>

8000002c <trap_vec_init>:
8000002c:	00001a17          	auipc	s4,0x1
80000030:	c64a0a13          	addi	s4,s4,-924 # 80000c90 <mtvec_handler>
80000034:	001a6a13          	ori	s4,s4,1
80000038:	305a1073          	csrw	mtvec,s4

8000003c <mepc_setup>:
8000003c:	00000a17          	auipc	s4,0x0
80000040:	024a0a13          	addi	s4,s4,36 # 80000060 <init>
80000044:	341a1073          	csrw	mepc,s4

80000048 <init_machine_mode>:
80000048:	00002a37          	lui	s4,0x2
8000004c:	e00a0a13          	addi	s4,s4,-512 # 1e00 <_start-0x7fffe200>
80000050:	300a1073          	csrw	mstatus,s4
80000054:	00000a13          	li	s4,0
80000058:	304a1073          	csrw	mie,s4
8000005c:	30200073          	mret

80000060 <init>:
80000060:	80000037          	lui	zero,0x80000
80000064:	00000013          	nop
80000068:	800000b7          	lui	ra,0x80000
8000006c:	00000113          	li	sp,0
80000070:	00000193          	li	gp,0
80000074:	09ea8237          	lui	tp,0x9ea8
80000078:	f1f20213          	addi	tp,tp,-225 # 9ea7f1f <_start-0x761580e1>
8000007c:	f7ed22b7          	lui	t0,0xf7ed2
80000080:	1fd28293          	addi	t0,t0,509 # f7ed21fd <_end+0x77ec7575>
80000084:	00000313          	li	t1,0
80000088:	800003b7          	lui	t2,0x80000
8000008c:	80000437          	lui	s0,0x80000
80000090:	00b00493          	li	s1,11
80000094:	00000513          	li	a0,0
80000098:	6d0505b7          	lui	a1,0x6d050
8000009c:	00d58593          	addi	a1,a1,13 # 6d05000d <_start-0x12fafff3>
800000a0:	00000613          	li	a2,0
800000a4:	00300693          	li	a3,3
800000a8:	f0203737          	lui	a4,0xf0203
800000ac:	9da70713          	addi	a4,a4,-1574 # f02029da <_end+0x701f7d52>
800000b0:	00000793          	li	a5,0
800000b4:	9b0a5837          	lui	a6,0x9b0a5
800000b8:	6a080813          	addi	a6,a6,1696 # 9b0a56a0 <_end+0x1b09aa18>
800000bc:	d49c38b7          	lui	a7,0xd49c3
800000c0:	c4b88893          	addi	a7,a7,-949 # d49c2c4b <_end+0x549b7fc3>
800000c4:	80000937          	lui	s2,0x80000
800000c8:	74db09b7          	lui	s3,0x74db0
800000cc:	69198993          	addi	s3,s3,1681 # 74db0691 <_start-0xb24f96f>
800000d0:	f09f1a37          	lui	s4,0xf09f1
800000d4:	540a0a13          	addi	s4,s4,1344 # f09f1540 <_end+0x709e68b8>
800000d8:	80000ab7          	lui	s5,0x80000
800000dc:	80000b37          	lui	s6,0x80000
800000e0:	00000b93          	li	s7,0
800000e4:	00000c13          	li	s8,0
800000e8:	002afcb7          	lui	s9,0x2af
800000ec:	351c8c93          	addi	s9,s9,849 # 2af351 <_start-0x7fd50caf>
800000f0:	03a9adb7          	lui	s11,0x3a9a
800000f4:	b64d8d93          	addi	s11,s11,-1180 # 3a99b64 <_start-0x7c56649c>
800000f8:	f20a4e37          	lui	t3,0xf20a4
800000fc:	4e7e0e13          	addi	t3,t3,1255 # f20a44e7 <_end+0x7209985f>
80000100:	f1750eb7          	lui	t4,0xf1750
80000104:	5b1e8e93          	addi	t4,t4,1457 # f17505b1 <_end+0x71745929>
80000108:	f299dfb7          	lui	t6,0xf299d
8000010c:	be7f8f93          	addi	t6,t6,-1049 # f299cbe7 <_end+0x72991f5f>
80000110:	00006d17          	auipc	s10,0x6
80000114:	d54d0d13          	addi	s10,s10,-684 # 80005e64 <user_stack_end>

80000118 <main>:
80000118:	009b7033          	and	zero,s6,s1
8000011c:	00dd17b3          	sll	a5,s10,a3
80000120:	00000013          	nop
80000124:	00b30033          	add	zero,t1,a1
80000128:	00000013          	nop
8000012c:	7ab7be13          	sltiu	t3,a5,1963
80000130:	01384833          	xor	a6,a6,s3
80000134:	01221393          	slli	t2,tp,0x12
80000138:	40f387b3          	sub	a5,t2,a5
8000013c:	005050b3          	srl	ra,zero,t0
80000140:	00593ab3          	sltu	s5,s2,t0
80000144:	00c3ec33          	or	s8,t2,a2
80000148:	018d42b3          	xor	t0,s10,s8
8000014c:	2c434217          	auipc	tp,0x2c434
80000150:	01c757b3          	srl	a5,a4,t3
80000154:	019e5033          	srl	zero,t3,s9
80000158:	007c5013          	srli	zero,s8,0x7
8000015c:	01e9d013          	srli	zero,s3,0x1e
80000160:	41cb88b3          	sub	a7,s7,t3
80000164:	004e87b3          	add	a5,t4,tp
80000168:	01600033          	add	zero,zero,s6
8000016c:	01f25513          	srli	a0,tp,0x1f
80000170:	881718b7          	lui	a7,0x88171
80000174:	00000013          	nop
80000178:	73f33117          	auipc	sp,0x73f33
8000017c:	4197d433          	sra	s0,a5,s9
80000180:	d63d3613          	sltiu	a2,s10,-669
80000184:	00000013          	nop
80000188:	00f04b33          	xor	s6,zero,a5
8000018c:	014454b3          	srl	s1,s0,s4
80000190:	010fd5b3          	srl	a1,t6,a6
80000194:	3712fc93          	andi	s9,t0,881
80000198:	002c9493          	slli	s1,s9,0x2
8000019c:	010af933          	and	s2,s5,a6
800001a0:	00b25b33          	srl	s6,tp,a1
800001a4:	dfa30193          	addi	gp,t1,-518
800001a8:	40195233          	sra	tp,s2,ra
800001ac:	001a1a33          	sll	s4,s4,ra
800001b0:	dc80f7b7          	lui	a5,0xdc80f
800001b4:	0024e9b3          	or	s3,s1,sp
800001b8:	01e27db3          	and	s11,tp,t5
800001bc:	00714433          	xor	s0,sp,t2
800001c0:	665e0437          	lui	s0,0x665e0
800001c4:	76840413          	addi	s0,s0,1896 # 665e0768 <_start-0x19a1f898>
800001c8:	00100e93          	li	t4,1
800001cc:	00000e13          	li	t3,0
800001d0:	36040837          	lui	a6,0x36040
800001d4:	d4280813          	addi	a6,a6,-702 # 3603fd42 <_start-0x49fc02be>
800001d8:	00100d93          	li	s11,1
800001dc:	52a3ccb7          	lui	s9,0x52a3c
800001e0:	d2cc8c93          	addi	s9,s9,-724 # 52a3bd2c <_start-0x2d5c42d4>
800001e4:	00000493          	li	s1,0
800001e8:	00000a93          	li	s5,0
800001ec:	00100613          	li	a2,1
800001f0:	3dad48b7          	lui	a7,0x3dad4
800001f4:	8c988893          	addi	a7,a7,-1847 # 3dad38c9 <_start-0x4252c737>
800001f8:	00000013          	nop
800001fc:	404b85b3          	sub	a1,s7,tp
80000200:	00000013          	nop
80000204:	410001b3          	neg	gp,a6
80000208:	00000013          	nop
8000020c:	416801b3          	sub	gp,a6,s6
80000210:	6930b6b7          	lui	a3,0x6930b
80000214:	002283b3          	add	t2,t0,sp
80000218:	01e704b3          	add	s1,a4,t5
8000021c:	40c40b33          	sub	s6,s0,a2
80000220:	00000013          	nop
80000224:	00000013          	nop
80000228:	00000013          	nop
8000022c:	00bd8b33          	add	s6,s11,a1
80000230:	a6200813          	li	a6,-1438
80000234:	00000013          	nop
80000238:	00000013          	nop
8000023c:	41dc03b3          	sub	t2,s8,t4
80000240:	6f127eb7          	lui	t4,0x6f127
80000244:	e04b8013          	addi	zero,s7,-508
80000248:	00d70133          	add	sp,a4,a3
8000024c:	22af0813          	addi	a6,t5,554
80000250:	00000013          	nop
80000254:	40328eb3          	sub	t4,t0,gp
80000258:	00bac533          	xor	a0,s5,a1
8000025c:	40da51b3          	sra	gp,s4,a3
80000260:	01d59193          	slli	gp,a1,0x1d
80000264:	0199ab33          	slt	s6,s3,s9
80000268:	012344b3          	xor	s1,t1,s2
8000026c:	e551fc93          	andi	s9,gp,-427
80000270:	cbb23013          	sltiu	zero,tp,-837
80000274:	012ede93          	srli	t4,t4,0x12
80000278:	f7c87013          	andi	zero,a6,-132
8000027c:	957d8893          	addi	a7,s11,-1705
80000280:	40135293          	srai	t0,t1,0x1
80000284:	7528e693          	ori	a3,a7,1874
80000288:	7351e193          	ori	gp,gp,1845
8000028c:	41518c33          	sub	s8,gp,s5
80000290:	d9b06093          	ori	ra,zero,-613
80000294:	38737513          	andi	a0,t1,903
80000298:	fe98a013          	slti	zero,a7,-23
8000029c:	01e16033          	or	zero,sp,t5
800002a0:	892fb593          	sltiu	a1,t6,-1902
800002a4:	00d42b33          	slt	s6,s0,a3
800002a8:	00000013          	nop
800002ac:	4f9c3313          	sltiu	t1,s8,1273
800002b0:	01834033          	xor	zero,t1,s8
800002b4:	00fd45b3          	xor	a1,s10,a5
800002b8:	01539393          	slli	t2,t2,0x15
800002bc:	7e9bc9b7          	lui	s3,0x7e9bc
800002c0:	00c62733          	slt	a4,a2,a2
800002c4:	013ba033          	slt	zero,s7,s3
800002c8:	00000f97          	auipc	t6,0x0
800002cc:	00cf8f93          	addi	t6,t6,12 # 800002d4 <test_done>
800002d0:	000f8067          	jr	t6

800002d4 <test_done>:
800002d4:	00100193          	li	gp,1
800002d8:	00000073          	ecall

800002dc <write_tohost>:
800002dc:	00001f17          	auipc	t5,0x1
800002e0:	d23f2223          	sw	gp,-732(t5) # 80001000 <tohost>

800002e4 <_exit>:
800002e4:	ff9ff06f          	j	800002dc <write_tohost>

800002e8 <instr_end>:
800002e8:	00000013          	nop

800002ec <mmode_intr_vector_1>:
800002ec:	340d1d73          	csrrw	s10,mscratch,s10
800002f0:	000f0d33          	add	s10,t5,zero
800002f4:	f84d0d13          	addi	s10,s10,-124
800002f8:	001d2223          	sw	ra,4(s10)
800002fc:	002d2423          	sw	sp,8(s10)
80000300:	003d2623          	sw	gp,12(s10)
80000304:	004d2823          	sw	tp,16(s10)
80000308:	005d2a23          	sw	t0,20(s10)
8000030c:	006d2c23          	sw	t1,24(s10)
80000310:	007d2e23          	sw	t2,28(s10)
80000314:	028d2023          	sw	s0,32(s10)
80000318:	029d2223          	sw	s1,36(s10)
8000031c:	02ad2423          	sw	a0,40(s10)
80000320:	02bd2623          	sw	a1,44(s10)
80000324:	02cd2823          	sw	a2,48(s10)
80000328:	02dd2a23          	sw	a3,52(s10)
8000032c:	02ed2c23          	sw	a4,56(s10)
80000330:	02fd2e23          	sw	a5,60(s10)
80000334:	050d2023          	sw	a6,64(s10)
80000338:	051d2223          	sw	a7,68(s10)
8000033c:	052d2423          	sw	s2,72(s10)
80000340:	053d2623          	sw	s3,76(s10)
80000344:	054d2823          	sw	s4,80(s10)
80000348:	055d2a23          	sw	s5,84(s10)
8000034c:	056d2c23          	sw	s6,88(s10)
80000350:	057d2e23          	sw	s7,92(s10)
80000354:	078d2023          	sw	s8,96(s10)
80000358:	079d2223          	sw	s9,100(s10)
8000035c:	07ad2423          	sw	s10,104(s10)
80000360:	07bd2623          	sw	s11,108(s10)
80000364:	07cd2823          	sw	t3,112(s10)
80000368:	07dd2a23          	sw	t4,116(s10)
8000036c:	07ed2c23          	sw	t5,120(s10)
80000370:	07fd2e23          	sw	t6,124(s10)
80000374:	34202a73          	csrr	s4,mcause
80000378:	01fa5a13          	srli	s4,s4,0x1f
8000037c:	000a0463          	beqz	s4,80000384 <mmode_intr_vector_1+0x98>
80000380:	32d0006f          	j	80000eac <mmode_intr_handler>
80000384:	00000f97          	auipc	t6,0x0
80000388:	f50f8f93          	addi	t6,t6,-176 # 800002d4 <test_done>
8000038c:	000f8067          	jr	t6

80000390 <mmode_intr_vector_2>:
80000390:	340d1d73          	csrrw	s10,mscratch,s10
80000394:	000f0d33          	add	s10,t5,zero
80000398:	f84d0d13          	addi	s10,s10,-124
8000039c:	001d2223          	sw	ra,4(s10)
800003a0:	002d2423          	sw	sp,8(s10)
800003a4:	003d2623          	sw	gp,12(s10)
800003a8:	004d2823          	sw	tp,16(s10)
800003ac:	005d2a23          	sw	t0,20(s10)
800003b0:	006d2c23          	sw	t1,24(s10)
800003b4:	007d2e23          	sw	t2,28(s10)
800003b8:	028d2023          	sw	s0,32(s10)
800003bc:	029d2223          	sw	s1,36(s10)
800003c0:	02ad2423          	sw	a0,40(s10)
800003c4:	02bd2623          	sw	a1,44(s10)
800003c8:	02cd2823          	sw	a2,48(s10)
800003cc:	02dd2a23          	sw	a3,52(s10)
800003d0:	02ed2c23          	sw	a4,56(s10)
800003d4:	02fd2e23          	sw	a5,60(s10)
800003d8:	050d2023          	sw	a6,64(s10)
800003dc:	051d2223          	sw	a7,68(s10)
800003e0:	052d2423          	sw	s2,72(s10)
800003e4:	053d2623          	sw	s3,76(s10)
800003e8:	054d2823          	sw	s4,80(s10)
800003ec:	055d2a23          	sw	s5,84(s10)
800003f0:	056d2c23          	sw	s6,88(s10)
800003f4:	057d2e23          	sw	s7,92(s10)
800003f8:	078d2023          	sw	s8,96(s10)
800003fc:	079d2223          	sw	s9,100(s10)
80000400:	07ad2423          	sw	s10,104(s10)
80000404:	07bd2623          	sw	s11,108(s10)
80000408:	07cd2823          	sw	t3,112(s10)
8000040c:	07dd2a23          	sw	t4,116(s10)
80000410:	07ed2c23          	sw	t5,120(s10)
80000414:	07fd2e23          	sw	t6,124(s10)
80000418:	34202a73          	csrr	s4,mcause
8000041c:	01fa5a13          	srli	s4,s4,0x1f
80000420:	000a0463          	beqz	s4,80000428 <mmode_intr_vector_2+0x98>
80000424:	2890006f          	j	80000eac <mmode_intr_handler>
80000428:	00000f97          	auipc	t6,0x0
8000042c:	eacf8f93          	addi	t6,t6,-340 # 800002d4 <test_done>
80000430:	000f8067          	jr	t6

80000434 <mmode_intr_vector_3>:
80000434:	340d1d73          	csrrw	s10,mscratch,s10
80000438:	000f0d33          	add	s10,t5,zero
8000043c:	f84d0d13          	addi	s10,s10,-124
80000440:	001d2223          	sw	ra,4(s10)
80000444:	002d2423          	sw	sp,8(s10)
80000448:	003d2623          	sw	gp,12(s10)
8000044c:	004d2823          	sw	tp,16(s10)
80000450:	005d2a23          	sw	t0,20(s10)
80000454:	006d2c23          	sw	t1,24(s10)
80000458:	007d2e23          	sw	t2,28(s10)
8000045c:	028d2023          	sw	s0,32(s10)
80000460:	029d2223          	sw	s1,36(s10)
80000464:	02ad2423          	sw	a0,40(s10)
80000468:	02bd2623          	sw	a1,44(s10)
8000046c:	02cd2823          	sw	a2,48(s10)
80000470:	02dd2a23          	sw	a3,52(s10)
80000474:	02ed2c23          	sw	a4,56(s10)
80000478:	02fd2e23          	sw	a5,60(s10)
8000047c:	050d2023          	sw	a6,64(s10)
80000480:	051d2223          	sw	a7,68(s10)
80000484:	052d2423          	sw	s2,72(s10)
80000488:	053d2623          	sw	s3,76(s10)
8000048c:	054d2823          	sw	s4,80(s10)
80000490:	055d2a23          	sw	s5,84(s10)
80000494:	056d2c23          	sw	s6,88(s10)
80000498:	057d2e23          	sw	s7,92(s10)
8000049c:	078d2023          	sw	s8,96(s10)
800004a0:	079d2223          	sw	s9,100(s10)
800004a4:	07ad2423          	sw	s10,104(s10)
800004a8:	07bd2623          	sw	s11,108(s10)
800004ac:	07cd2823          	sw	t3,112(s10)
800004b0:	07dd2a23          	sw	t4,116(s10)
800004b4:	07ed2c23          	sw	t5,120(s10)
800004b8:	07fd2e23          	sw	t6,124(s10)
800004bc:	34202a73          	csrr	s4,mcause
800004c0:	01fa5a13          	srli	s4,s4,0x1f
800004c4:	000a0463          	beqz	s4,800004cc <mmode_intr_vector_3+0x98>
800004c8:	1e50006f          	j	80000eac <mmode_intr_handler>
800004cc:	00000f97          	auipc	t6,0x0
800004d0:	e08f8f93          	addi	t6,t6,-504 # 800002d4 <test_done>
800004d4:	000f8067          	jr	t6

800004d8 <mmode_intr_vector_4>:
800004d8:	340d1d73          	csrrw	s10,mscratch,s10
800004dc:	000f0d33          	add	s10,t5,zero
800004e0:	f84d0d13          	addi	s10,s10,-124
800004e4:	001d2223          	sw	ra,4(s10)
800004e8:	002d2423          	sw	sp,8(s10)
800004ec:	003d2623          	sw	gp,12(s10)
800004f0:	004d2823          	sw	tp,16(s10)
800004f4:	005d2a23          	sw	t0,20(s10)
800004f8:	006d2c23          	sw	t1,24(s10)
800004fc:	007d2e23          	sw	t2,28(s10)
80000500:	028d2023          	sw	s0,32(s10)
80000504:	029d2223          	sw	s1,36(s10)
80000508:	02ad2423          	sw	a0,40(s10)
8000050c:	02bd2623          	sw	a1,44(s10)
80000510:	02cd2823          	sw	a2,48(s10)
80000514:	02dd2a23          	sw	a3,52(s10)
80000518:	02ed2c23          	sw	a4,56(s10)
8000051c:	02fd2e23          	sw	a5,60(s10)
80000520:	050d2023          	sw	a6,64(s10)
80000524:	051d2223          	sw	a7,68(s10)
80000528:	052d2423          	sw	s2,72(s10)
8000052c:	053d2623          	sw	s3,76(s10)
80000530:	054d2823          	sw	s4,80(s10)
80000534:	055d2a23          	sw	s5,84(s10)
80000538:	056d2c23          	sw	s6,88(s10)
8000053c:	057d2e23          	sw	s7,92(s10)
80000540:	078d2023          	sw	s8,96(s10)
80000544:	079d2223          	sw	s9,100(s10)
80000548:	07ad2423          	sw	s10,104(s10)
8000054c:	07bd2623          	sw	s11,108(s10)
80000550:	07cd2823          	sw	t3,112(s10)
80000554:	07dd2a23          	sw	t4,116(s10)
80000558:	07ed2c23          	sw	t5,120(s10)
8000055c:	07fd2e23          	sw	t6,124(s10)
80000560:	34202a73          	csrr	s4,mcause
80000564:	01fa5a13          	srli	s4,s4,0x1f
80000568:	000a0463          	beqz	s4,80000570 <mmode_intr_vector_4+0x98>
8000056c:	1410006f          	j	80000eac <mmode_intr_handler>
80000570:	00000f97          	auipc	t6,0x0
80000574:	d64f8f93          	addi	t6,t6,-668 # 800002d4 <test_done>
80000578:	000f8067          	jr	t6

8000057c <mmode_intr_vector_5>:
8000057c:	340d1d73          	csrrw	s10,mscratch,s10
80000580:	000f0d33          	add	s10,t5,zero
80000584:	f84d0d13          	addi	s10,s10,-124
80000588:	001d2223          	sw	ra,4(s10)
8000058c:	002d2423          	sw	sp,8(s10)
80000590:	003d2623          	sw	gp,12(s10)
80000594:	004d2823          	sw	tp,16(s10)
80000598:	005d2a23          	sw	t0,20(s10)
8000059c:	006d2c23          	sw	t1,24(s10)
800005a0:	007d2e23          	sw	t2,28(s10)
800005a4:	028d2023          	sw	s0,32(s10)
800005a8:	029d2223          	sw	s1,36(s10)
800005ac:	02ad2423          	sw	a0,40(s10)
800005b0:	02bd2623          	sw	a1,44(s10)
800005b4:	02cd2823          	sw	a2,48(s10)
800005b8:	02dd2a23          	sw	a3,52(s10)
800005bc:	02ed2c23          	sw	a4,56(s10)
800005c0:	02fd2e23          	sw	a5,60(s10)
800005c4:	050d2023          	sw	a6,64(s10)
800005c8:	051d2223          	sw	a7,68(s10)
800005cc:	052d2423          	sw	s2,72(s10)
800005d0:	053d2623          	sw	s3,76(s10)
800005d4:	054d2823          	sw	s4,80(s10)
800005d8:	055d2a23          	sw	s5,84(s10)
800005dc:	056d2c23          	sw	s6,88(s10)
800005e0:	057d2e23          	sw	s7,92(s10)
800005e4:	078d2023          	sw	s8,96(s10)
800005e8:	079d2223          	sw	s9,100(s10)
800005ec:	07ad2423          	sw	s10,104(s10)
800005f0:	07bd2623          	sw	s11,108(s10)
800005f4:	07cd2823          	sw	t3,112(s10)
800005f8:	07dd2a23          	sw	t4,116(s10)
800005fc:	07ed2c23          	sw	t5,120(s10)
80000600:	07fd2e23          	sw	t6,124(s10)
80000604:	34202a73          	csrr	s4,mcause
80000608:	01fa5a13          	srli	s4,s4,0x1f
8000060c:	000a0463          	beqz	s4,80000614 <mmode_intr_vector_5+0x98>
80000610:	09d0006f          	j	80000eac <mmode_intr_handler>
80000614:	00000f97          	auipc	t6,0x0
80000618:	cc0f8f93          	addi	t6,t6,-832 # 800002d4 <test_done>
8000061c:	000f8067          	jr	t6

80000620 <mmode_intr_vector_6>:
80000620:	340d1d73          	csrrw	s10,mscratch,s10
80000624:	000f0d33          	add	s10,t5,zero
80000628:	f84d0d13          	addi	s10,s10,-124
8000062c:	001d2223          	sw	ra,4(s10)
80000630:	002d2423          	sw	sp,8(s10)
80000634:	003d2623          	sw	gp,12(s10)
80000638:	004d2823          	sw	tp,16(s10)
8000063c:	005d2a23          	sw	t0,20(s10)
80000640:	006d2c23          	sw	t1,24(s10)
80000644:	007d2e23          	sw	t2,28(s10)
80000648:	028d2023          	sw	s0,32(s10)
8000064c:	029d2223          	sw	s1,36(s10)
80000650:	02ad2423          	sw	a0,40(s10)
80000654:	02bd2623          	sw	a1,44(s10)
80000658:	02cd2823          	sw	a2,48(s10)
8000065c:	02dd2a23          	sw	a3,52(s10)
80000660:	02ed2c23          	sw	a4,56(s10)
80000664:	02fd2e23          	sw	a5,60(s10)
80000668:	050d2023          	sw	a6,64(s10)
8000066c:	051d2223          	sw	a7,68(s10)
80000670:	052d2423          	sw	s2,72(s10)
80000674:	053d2623          	sw	s3,76(s10)
80000678:	054d2823          	sw	s4,80(s10)
8000067c:	055d2a23          	sw	s5,84(s10)
80000680:	056d2c23          	sw	s6,88(s10)
80000684:	057d2e23          	sw	s7,92(s10)
80000688:	078d2023          	sw	s8,96(s10)
8000068c:	079d2223          	sw	s9,100(s10)
80000690:	07ad2423          	sw	s10,104(s10)
80000694:	07bd2623          	sw	s11,108(s10)
80000698:	07cd2823          	sw	t3,112(s10)
8000069c:	07dd2a23          	sw	t4,116(s10)
800006a0:	07ed2c23          	sw	t5,120(s10)
800006a4:	07fd2e23          	sw	t6,124(s10)
800006a8:	34202a73          	csrr	s4,mcause
800006ac:	01fa5a13          	srli	s4,s4,0x1f
800006b0:	000a0463          	beqz	s4,800006b8 <mmode_intr_vector_6+0x98>
800006b4:	7f80006f          	j	80000eac <mmode_intr_handler>
800006b8:	00000f97          	auipc	t6,0x0
800006bc:	c1cf8f93          	addi	t6,t6,-996 # 800002d4 <test_done>
800006c0:	000f8067          	jr	t6

800006c4 <mmode_intr_vector_7>:
800006c4:	340d1d73          	csrrw	s10,mscratch,s10
800006c8:	000f0d33          	add	s10,t5,zero
800006cc:	f84d0d13          	addi	s10,s10,-124
800006d0:	001d2223          	sw	ra,4(s10)
800006d4:	002d2423          	sw	sp,8(s10)
800006d8:	003d2623          	sw	gp,12(s10)
800006dc:	004d2823          	sw	tp,16(s10)
800006e0:	005d2a23          	sw	t0,20(s10)
800006e4:	006d2c23          	sw	t1,24(s10)
800006e8:	007d2e23          	sw	t2,28(s10)
800006ec:	028d2023          	sw	s0,32(s10)
800006f0:	029d2223          	sw	s1,36(s10)
800006f4:	02ad2423          	sw	a0,40(s10)
800006f8:	02bd2623          	sw	a1,44(s10)
800006fc:	02cd2823          	sw	a2,48(s10)
80000700:	02dd2a23          	sw	a3,52(s10)
80000704:	02ed2c23          	sw	a4,56(s10)
80000708:	02fd2e23          	sw	a5,60(s10)
8000070c:	050d2023          	sw	a6,64(s10)
80000710:	051d2223          	sw	a7,68(s10)
80000714:	052d2423          	sw	s2,72(s10)
80000718:	053d2623          	sw	s3,76(s10)
8000071c:	054d2823          	sw	s4,80(s10)
80000720:	055d2a23          	sw	s5,84(s10)
80000724:	056d2c23          	sw	s6,88(s10)
80000728:	057d2e23          	sw	s7,92(s10)
8000072c:	078d2023          	sw	s8,96(s10)
80000730:	079d2223          	sw	s9,100(s10)
80000734:	07ad2423          	sw	s10,104(s10)
80000738:	07bd2623          	sw	s11,108(s10)
8000073c:	07cd2823          	sw	t3,112(s10)
80000740:	07dd2a23          	sw	t4,116(s10)
80000744:	07ed2c23          	sw	t5,120(s10)
80000748:	07fd2e23          	sw	t6,124(s10)
8000074c:	34202a73          	csrr	s4,mcause
80000750:	01fa5a13          	srli	s4,s4,0x1f
80000754:	000a0463          	beqz	s4,8000075c <mmode_intr_vector_7+0x98>
80000758:	7540006f          	j	80000eac <mmode_intr_handler>
8000075c:	00000f97          	auipc	t6,0x0
80000760:	b78f8f93          	addi	t6,t6,-1160 # 800002d4 <test_done>
80000764:	000f8067          	jr	t6

80000768 <mmode_intr_vector_8>:
80000768:	340d1d73          	csrrw	s10,mscratch,s10
8000076c:	000f0d33          	add	s10,t5,zero
80000770:	f84d0d13          	addi	s10,s10,-124
80000774:	001d2223          	sw	ra,4(s10)
80000778:	002d2423          	sw	sp,8(s10)
8000077c:	003d2623          	sw	gp,12(s10)
80000780:	004d2823          	sw	tp,16(s10)
80000784:	005d2a23          	sw	t0,20(s10)
80000788:	006d2c23          	sw	t1,24(s10)
8000078c:	007d2e23          	sw	t2,28(s10)
80000790:	028d2023          	sw	s0,32(s10)
80000794:	029d2223          	sw	s1,36(s10)
80000798:	02ad2423          	sw	a0,40(s10)
8000079c:	02bd2623          	sw	a1,44(s10)
800007a0:	02cd2823          	sw	a2,48(s10)
800007a4:	02dd2a23          	sw	a3,52(s10)
800007a8:	02ed2c23          	sw	a4,56(s10)
800007ac:	02fd2e23          	sw	a5,60(s10)
800007b0:	050d2023          	sw	a6,64(s10)
800007b4:	051d2223          	sw	a7,68(s10)
800007b8:	052d2423          	sw	s2,72(s10)
800007bc:	053d2623          	sw	s3,76(s10)
800007c0:	054d2823          	sw	s4,80(s10)
800007c4:	055d2a23          	sw	s5,84(s10)
800007c8:	056d2c23          	sw	s6,88(s10)
800007cc:	057d2e23          	sw	s7,92(s10)
800007d0:	078d2023          	sw	s8,96(s10)
800007d4:	079d2223          	sw	s9,100(s10)
800007d8:	07ad2423          	sw	s10,104(s10)
800007dc:	07bd2623          	sw	s11,108(s10)
800007e0:	07cd2823          	sw	t3,112(s10)
800007e4:	07dd2a23          	sw	t4,116(s10)
800007e8:	07ed2c23          	sw	t5,120(s10)
800007ec:	07fd2e23          	sw	t6,124(s10)
800007f0:	34202a73          	csrr	s4,mcause
800007f4:	01fa5a13          	srli	s4,s4,0x1f
800007f8:	000a0463          	beqz	s4,80000800 <mmode_intr_vector_8+0x98>
800007fc:	6b00006f          	j	80000eac <mmode_intr_handler>
80000800:	00000f97          	auipc	t6,0x0
80000804:	ad4f8f93          	addi	t6,t6,-1324 # 800002d4 <test_done>
80000808:	000f8067          	jr	t6

8000080c <mmode_intr_vector_9>:
8000080c:	340d1d73          	csrrw	s10,mscratch,s10
80000810:	000f0d33          	add	s10,t5,zero
80000814:	f84d0d13          	addi	s10,s10,-124
80000818:	001d2223          	sw	ra,4(s10)
8000081c:	002d2423          	sw	sp,8(s10)
80000820:	003d2623          	sw	gp,12(s10)
80000824:	004d2823          	sw	tp,16(s10)
80000828:	005d2a23          	sw	t0,20(s10)
8000082c:	006d2c23          	sw	t1,24(s10)
80000830:	007d2e23          	sw	t2,28(s10)
80000834:	028d2023          	sw	s0,32(s10)
80000838:	029d2223          	sw	s1,36(s10)
8000083c:	02ad2423          	sw	a0,40(s10)
80000840:	02bd2623          	sw	a1,44(s10)
80000844:	02cd2823          	sw	a2,48(s10)
80000848:	02dd2a23          	sw	a3,52(s10)
8000084c:	02ed2c23          	sw	a4,56(s10)
80000850:	02fd2e23          	sw	a5,60(s10)
80000854:	050d2023          	sw	a6,64(s10)
80000858:	051d2223          	sw	a7,68(s10)
8000085c:	052d2423          	sw	s2,72(s10)
80000860:	053d2623          	sw	s3,76(s10)
80000864:	054d2823          	sw	s4,80(s10)
80000868:	055d2a23          	sw	s5,84(s10)
8000086c:	056d2c23          	sw	s6,88(s10)
80000870:	057d2e23          	sw	s7,92(s10)
80000874:	078d2023          	sw	s8,96(s10)
80000878:	079d2223          	sw	s9,100(s10)
8000087c:	07ad2423          	sw	s10,104(s10)
80000880:	07bd2623          	sw	s11,108(s10)
80000884:	07cd2823          	sw	t3,112(s10)
80000888:	07dd2a23          	sw	t4,116(s10)
8000088c:	07ed2c23          	sw	t5,120(s10)
80000890:	07fd2e23          	sw	t6,124(s10)
80000894:	34202a73          	csrr	s4,mcause
80000898:	01fa5a13          	srli	s4,s4,0x1f
8000089c:	000a0463          	beqz	s4,800008a4 <mmode_intr_vector_9+0x98>
800008a0:	60c0006f          	j	80000eac <mmode_intr_handler>
800008a4:	00000f97          	auipc	t6,0x0
800008a8:	a30f8f93          	addi	t6,t6,-1488 # 800002d4 <test_done>
800008ac:	000f8067          	jr	t6

800008b0 <mmode_intr_vector_10>:
800008b0:	340d1d73          	csrrw	s10,mscratch,s10
800008b4:	000f0d33          	add	s10,t5,zero
800008b8:	f84d0d13          	addi	s10,s10,-124
800008bc:	001d2223          	sw	ra,4(s10)
800008c0:	002d2423          	sw	sp,8(s10)
800008c4:	003d2623          	sw	gp,12(s10)
800008c8:	004d2823          	sw	tp,16(s10)
800008cc:	005d2a23          	sw	t0,20(s10)
800008d0:	006d2c23          	sw	t1,24(s10)
800008d4:	007d2e23          	sw	t2,28(s10)
800008d8:	028d2023          	sw	s0,32(s10)
800008dc:	029d2223          	sw	s1,36(s10)
800008e0:	02ad2423          	sw	a0,40(s10)
800008e4:	02bd2623          	sw	a1,44(s10)
800008e8:	02cd2823          	sw	a2,48(s10)
800008ec:	02dd2a23          	sw	a3,52(s10)
800008f0:	02ed2c23          	sw	a4,56(s10)
800008f4:	02fd2e23          	sw	a5,60(s10)
800008f8:	050d2023          	sw	a6,64(s10)
800008fc:	051d2223          	sw	a7,68(s10)
80000900:	052d2423          	sw	s2,72(s10)
80000904:	053d2623          	sw	s3,76(s10)
80000908:	054d2823          	sw	s4,80(s10)
8000090c:	055d2a23          	sw	s5,84(s10)
80000910:	056d2c23          	sw	s6,88(s10)
80000914:	057d2e23          	sw	s7,92(s10)
80000918:	078d2023          	sw	s8,96(s10)
8000091c:	079d2223          	sw	s9,100(s10)
80000920:	07ad2423          	sw	s10,104(s10)
80000924:	07bd2623          	sw	s11,108(s10)
80000928:	07cd2823          	sw	t3,112(s10)
8000092c:	07dd2a23          	sw	t4,116(s10)
80000930:	07ed2c23          	sw	t5,120(s10)
80000934:	07fd2e23          	sw	t6,124(s10)
80000938:	34202a73          	csrr	s4,mcause
8000093c:	01fa5a13          	srli	s4,s4,0x1f
80000940:	000a0463          	beqz	s4,80000948 <mmode_intr_vector_10+0x98>
80000944:	5680006f          	j	80000eac <mmode_intr_handler>
80000948:	00000f97          	auipc	t6,0x0
8000094c:	98cf8f93          	addi	t6,t6,-1652 # 800002d4 <test_done>
80000950:	000f8067          	jr	t6

80000954 <mmode_intr_vector_11>:
80000954:	340d1d73          	csrrw	s10,mscratch,s10
80000958:	000f0d33          	add	s10,t5,zero
8000095c:	f84d0d13          	addi	s10,s10,-124
80000960:	001d2223          	sw	ra,4(s10)
80000964:	002d2423          	sw	sp,8(s10)
80000968:	003d2623          	sw	gp,12(s10)
8000096c:	004d2823          	sw	tp,16(s10)
80000970:	005d2a23          	sw	t0,20(s10)
80000974:	006d2c23          	sw	t1,24(s10)
80000978:	007d2e23          	sw	t2,28(s10)
8000097c:	028d2023          	sw	s0,32(s10)
80000980:	029d2223          	sw	s1,36(s10)
80000984:	02ad2423          	sw	a0,40(s10)
80000988:	02bd2623          	sw	a1,44(s10)
8000098c:	02cd2823          	sw	a2,48(s10)
80000990:	02dd2a23          	sw	a3,52(s10)
80000994:	02ed2c23          	sw	a4,56(s10)
80000998:	02fd2e23          	sw	a5,60(s10)
8000099c:	050d2023          	sw	a6,64(s10)
800009a0:	051d2223          	sw	a7,68(s10)
800009a4:	052d2423          	sw	s2,72(s10)
800009a8:	053d2623          	sw	s3,76(s10)
800009ac:	054d2823          	sw	s4,80(s10)
800009b0:	055d2a23          	sw	s5,84(s10)
800009b4:	056d2c23          	sw	s6,88(s10)
800009b8:	057d2e23          	sw	s7,92(s10)
800009bc:	078d2023          	sw	s8,96(s10)
800009c0:	079d2223          	sw	s9,100(s10)
800009c4:	07ad2423          	sw	s10,104(s10)
800009c8:	07bd2623          	sw	s11,108(s10)
800009cc:	07cd2823          	sw	t3,112(s10)
800009d0:	07dd2a23          	sw	t4,116(s10)
800009d4:	07ed2c23          	sw	t5,120(s10)
800009d8:	07fd2e23          	sw	t6,124(s10)
800009dc:	34202a73          	csrr	s4,mcause
800009e0:	01fa5a13          	srli	s4,s4,0x1f
800009e4:	000a0463          	beqz	s4,800009ec <mmode_intr_vector_11+0x98>
800009e8:	4c40006f          	j	80000eac <mmode_intr_handler>
800009ec:	00000f97          	auipc	t6,0x0
800009f0:	8e8f8f93          	addi	t6,t6,-1816 # 800002d4 <test_done>
800009f4:	000f8067          	jr	t6

800009f8 <mmode_intr_vector_12>:
800009f8:	340d1d73          	csrrw	s10,mscratch,s10
800009fc:	000f0d33          	add	s10,t5,zero
80000a00:	f84d0d13          	addi	s10,s10,-124
80000a04:	001d2223          	sw	ra,4(s10)
80000a08:	002d2423          	sw	sp,8(s10)
80000a0c:	003d2623          	sw	gp,12(s10)
80000a10:	004d2823          	sw	tp,16(s10)
80000a14:	005d2a23          	sw	t0,20(s10)
80000a18:	006d2c23          	sw	t1,24(s10)
80000a1c:	007d2e23          	sw	t2,28(s10)
80000a20:	028d2023          	sw	s0,32(s10)
80000a24:	029d2223          	sw	s1,36(s10)
80000a28:	02ad2423          	sw	a0,40(s10)
80000a2c:	02bd2623          	sw	a1,44(s10)
80000a30:	02cd2823          	sw	a2,48(s10)
80000a34:	02dd2a23          	sw	a3,52(s10)
80000a38:	02ed2c23          	sw	a4,56(s10)
80000a3c:	02fd2e23          	sw	a5,60(s10)
80000a40:	050d2023          	sw	a6,64(s10)
80000a44:	051d2223          	sw	a7,68(s10)
80000a48:	052d2423          	sw	s2,72(s10)
80000a4c:	053d2623          	sw	s3,76(s10)
80000a50:	054d2823          	sw	s4,80(s10)
80000a54:	055d2a23          	sw	s5,84(s10)
80000a58:	056d2c23          	sw	s6,88(s10)
80000a5c:	057d2e23          	sw	s7,92(s10)
80000a60:	078d2023          	sw	s8,96(s10)
80000a64:	079d2223          	sw	s9,100(s10)
80000a68:	07ad2423          	sw	s10,104(s10)
80000a6c:	07bd2623          	sw	s11,108(s10)
80000a70:	07cd2823          	sw	t3,112(s10)
80000a74:	07dd2a23          	sw	t4,116(s10)
80000a78:	07ed2c23          	sw	t5,120(s10)
80000a7c:	07fd2e23          	sw	t6,124(s10)
80000a80:	34202a73          	csrr	s4,mcause
80000a84:	01fa5a13          	srli	s4,s4,0x1f
80000a88:	000a0463          	beqz	s4,80000a90 <mmode_intr_vector_12+0x98>
80000a8c:	4200006f          	j	80000eac <mmode_intr_handler>
80000a90:	00000f97          	auipc	t6,0x0
80000a94:	844f8f93          	addi	t6,t6,-1980 # 800002d4 <test_done>
80000a98:	000f8067          	jr	t6

80000a9c <mmode_intr_vector_13>:
80000a9c:	340d1d73          	csrrw	s10,mscratch,s10
80000aa0:	000f0d33          	add	s10,t5,zero
80000aa4:	f84d0d13          	addi	s10,s10,-124
80000aa8:	001d2223          	sw	ra,4(s10)
80000aac:	002d2423          	sw	sp,8(s10)
80000ab0:	003d2623          	sw	gp,12(s10)
80000ab4:	004d2823          	sw	tp,16(s10)
80000ab8:	005d2a23          	sw	t0,20(s10)
80000abc:	006d2c23          	sw	t1,24(s10)
80000ac0:	007d2e23          	sw	t2,28(s10)
80000ac4:	028d2023          	sw	s0,32(s10)
80000ac8:	029d2223          	sw	s1,36(s10)
80000acc:	02ad2423          	sw	a0,40(s10)
80000ad0:	02bd2623          	sw	a1,44(s10)
80000ad4:	02cd2823          	sw	a2,48(s10)
80000ad8:	02dd2a23          	sw	a3,52(s10)
80000adc:	02ed2c23          	sw	a4,56(s10)
80000ae0:	02fd2e23          	sw	a5,60(s10)
80000ae4:	050d2023          	sw	a6,64(s10)
80000ae8:	051d2223          	sw	a7,68(s10)
80000aec:	052d2423          	sw	s2,72(s10)
80000af0:	053d2623          	sw	s3,76(s10)
80000af4:	054d2823          	sw	s4,80(s10)
80000af8:	055d2a23          	sw	s5,84(s10)
80000afc:	056d2c23          	sw	s6,88(s10)
80000b00:	057d2e23          	sw	s7,92(s10)
80000b04:	078d2023          	sw	s8,96(s10)
80000b08:	079d2223          	sw	s9,100(s10)
80000b0c:	07ad2423          	sw	s10,104(s10)
80000b10:	07bd2623          	sw	s11,108(s10)
80000b14:	07cd2823          	sw	t3,112(s10)
80000b18:	07dd2a23          	sw	t4,116(s10)
80000b1c:	07ed2c23          	sw	t5,120(s10)
80000b20:	07fd2e23          	sw	t6,124(s10)
80000b24:	34202a73          	csrr	s4,mcause
80000b28:	01fa5a13          	srli	s4,s4,0x1f
80000b2c:	000a0463          	beqz	s4,80000b34 <mmode_intr_vector_13+0x98>
80000b30:	37c0006f          	j	80000eac <mmode_intr_handler>
80000b34:	ffffff97          	auipc	t6,0xfffff
80000b38:	7a0f8f93          	addi	t6,t6,1952 # 800002d4 <test_done>
80000b3c:	000f8067          	jr	t6

80000b40 <mmode_intr_vector_14>:
80000b40:	340d1d73          	csrrw	s10,mscratch,s10
80000b44:	000f0d33          	add	s10,t5,zero
80000b48:	f84d0d13          	addi	s10,s10,-124
80000b4c:	001d2223          	sw	ra,4(s10)
80000b50:	002d2423          	sw	sp,8(s10)
80000b54:	003d2623          	sw	gp,12(s10)
80000b58:	004d2823          	sw	tp,16(s10)
80000b5c:	005d2a23          	sw	t0,20(s10)
80000b60:	006d2c23          	sw	t1,24(s10)
80000b64:	007d2e23          	sw	t2,28(s10)
80000b68:	028d2023          	sw	s0,32(s10)
80000b6c:	029d2223          	sw	s1,36(s10)
80000b70:	02ad2423          	sw	a0,40(s10)
80000b74:	02bd2623          	sw	a1,44(s10)
80000b78:	02cd2823          	sw	a2,48(s10)
80000b7c:	02dd2a23          	sw	a3,52(s10)
80000b80:	02ed2c23          	sw	a4,56(s10)
80000b84:	02fd2e23          	sw	a5,60(s10)
80000b88:	050d2023          	sw	a6,64(s10)
80000b8c:	051d2223          	sw	a7,68(s10)
80000b90:	052d2423          	sw	s2,72(s10)
80000b94:	053d2623          	sw	s3,76(s10)
80000b98:	054d2823          	sw	s4,80(s10)
80000b9c:	055d2a23          	sw	s5,84(s10)
80000ba0:	056d2c23          	sw	s6,88(s10)
80000ba4:	057d2e23          	sw	s7,92(s10)
80000ba8:	078d2023          	sw	s8,96(s10)
80000bac:	079d2223          	sw	s9,100(s10)
80000bb0:	07ad2423          	sw	s10,104(s10)
80000bb4:	07bd2623          	sw	s11,108(s10)
80000bb8:	07cd2823          	sw	t3,112(s10)
80000bbc:	07dd2a23          	sw	t4,116(s10)
80000bc0:	07ed2c23          	sw	t5,120(s10)
80000bc4:	07fd2e23          	sw	t6,124(s10)
80000bc8:	34202a73          	csrr	s4,mcause
80000bcc:	01fa5a13          	srli	s4,s4,0x1f
80000bd0:	000a0463          	beqz	s4,80000bd8 <mmode_intr_vector_14+0x98>
80000bd4:	2d80006f          	j	80000eac <mmode_intr_handler>
80000bd8:	ffffff97          	auipc	t6,0xfffff
80000bdc:	6fcf8f93          	addi	t6,t6,1788 # 800002d4 <test_done>
80000be0:	000f8067          	jr	t6

80000be4 <mmode_intr_vector_15>:
80000be4:	340d1d73          	csrrw	s10,mscratch,s10
80000be8:	000f0d33          	add	s10,t5,zero
80000bec:	f84d0d13          	addi	s10,s10,-124
80000bf0:	001d2223          	sw	ra,4(s10)
80000bf4:	002d2423          	sw	sp,8(s10)
80000bf8:	003d2623          	sw	gp,12(s10)
80000bfc:	004d2823          	sw	tp,16(s10)
80000c00:	005d2a23          	sw	t0,20(s10)
80000c04:	006d2c23          	sw	t1,24(s10)
80000c08:	007d2e23          	sw	t2,28(s10)
80000c0c:	028d2023          	sw	s0,32(s10)
80000c10:	029d2223          	sw	s1,36(s10)
80000c14:	02ad2423          	sw	a0,40(s10)
80000c18:	02bd2623          	sw	a1,44(s10)
80000c1c:	02cd2823          	sw	a2,48(s10)
80000c20:	02dd2a23          	sw	a3,52(s10)
80000c24:	02ed2c23          	sw	a4,56(s10)
80000c28:	02fd2e23          	sw	a5,60(s10)
80000c2c:	050d2023          	sw	a6,64(s10)
80000c30:	051d2223          	sw	a7,68(s10)
80000c34:	052d2423          	sw	s2,72(s10)
80000c38:	053d2623          	sw	s3,76(s10)
80000c3c:	054d2823          	sw	s4,80(s10)
80000c40:	055d2a23          	sw	s5,84(s10)
80000c44:	056d2c23          	sw	s6,88(s10)
80000c48:	057d2e23          	sw	s7,92(s10)
80000c4c:	078d2023          	sw	s8,96(s10)
80000c50:	079d2223          	sw	s9,100(s10)
80000c54:	07ad2423          	sw	s10,104(s10)
80000c58:	07bd2623          	sw	s11,108(s10)
80000c5c:	07cd2823          	sw	t3,112(s10)
80000c60:	07dd2a23          	sw	t4,116(s10)
80000c64:	07ed2c23          	sw	t5,120(s10)
80000c68:	07fd2e23          	sw	t6,124(s10)
80000c6c:	34202a73          	csrr	s4,mcause
80000c70:	01fa5a13          	srli	s4,s4,0x1f
80000c74:	000a0463          	beqz	s4,80000c7c <mmode_intr_vector_15+0x98>
80000c78:	2340006f          	j	80000eac <mmode_intr_handler>
80000c7c:	ffffff97          	auipc	t6,0xfffff
80000c80:	658f8f93          	addi	t6,t6,1624 # 800002d4 <test_done>
80000c84:	000f8067          	jr	t6
80000c88:	00000013          	nop
80000c8c:	00000013          	nop

80000c90 <mtvec_handler>:
80000c90:	0400006f          	j	80000cd0 <mmode_exception_handler>
80000c94:	e58ff06f          	j	800002ec <mmode_intr_vector_1>
80000c98:	ef8ff06f          	j	80000390 <mmode_intr_vector_2>
80000c9c:	f98ff06f          	j	80000434 <mmode_intr_vector_3>
80000ca0:	839ff06f          	j	800004d8 <mmode_intr_vector_4>
80000ca4:	8d9ff06f          	j	8000057c <mmode_intr_vector_5>
80000ca8:	979ff06f          	j	80000620 <mmode_intr_vector_6>
80000cac:	a19ff06f          	j	800006c4 <mmode_intr_vector_7>
80000cb0:	ab9ff06f          	j	80000768 <mmode_intr_vector_8>
80000cb4:	b59ff06f          	j	8000080c <mmode_intr_vector_9>
80000cb8:	bf9ff06f          	j	800008b0 <mmode_intr_vector_10>
80000cbc:	c99ff06f          	j	80000954 <mmode_intr_vector_11>
80000cc0:	d39ff06f          	j	800009f8 <mmode_intr_vector_12>
80000cc4:	dd9ff06f          	j	80000a9c <mmode_intr_vector_13>
80000cc8:	e79ff06f          	j	80000b40 <mmode_intr_vector_14>
80000ccc:	f19ff06f          	j	80000be4 <mmode_intr_vector_15>

80000cd0 <mmode_exception_handler>:
80000cd0:	340d1d73          	csrrw	s10,mscratch,s10
80000cd4:	000f0d33          	add	s10,t5,zero
80000cd8:	f84d0d13          	addi	s10,s10,-124
80000cdc:	001d2223          	sw	ra,4(s10)
80000ce0:	002d2423          	sw	sp,8(s10)
80000ce4:	003d2623          	sw	gp,12(s10)
80000ce8:	004d2823          	sw	tp,16(s10)
80000cec:	005d2a23          	sw	t0,20(s10)
80000cf0:	006d2c23          	sw	t1,24(s10)
80000cf4:	007d2e23          	sw	t2,28(s10)
80000cf8:	028d2023          	sw	s0,32(s10)
80000cfc:	029d2223          	sw	s1,36(s10)
80000d00:	02ad2423          	sw	a0,40(s10)
80000d04:	02bd2623          	sw	a1,44(s10)
80000d08:	02cd2823          	sw	a2,48(s10)
80000d0c:	02dd2a23          	sw	a3,52(s10)
80000d10:	02ed2c23          	sw	a4,56(s10)
80000d14:	02fd2e23          	sw	a5,60(s10)
80000d18:	050d2023          	sw	a6,64(s10)
80000d1c:	051d2223          	sw	a7,68(s10)
80000d20:	052d2423          	sw	s2,72(s10)
80000d24:	053d2623          	sw	s3,76(s10)
80000d28:	054d2823          	sw	s4,80(s10)
80000d2c:	055d2a23          	sw	s5,84(s10)
80000d30:	056d2c23          	sw	s6,88(s10)
80000d34:	057d2e23          	sw	s7,92(s10)
80000d38:	078d2023          	sw	s8,96(s10)
80000d3c:	079d2223          	sw	s9,100(s10)
80000d40:	07ad2423          	sw	s10,104(s10)
80000d44:	07bd2623          	sw	s11,108(s10)
80000d48:	07cd2823          	sw	t3,112(s10)
80000d4c:	07dd2a23          	sw	t4,116(s10)
80000d50:	07ed2c23          	sw	t5,120(s10)
80000d54:	07fd2e23          	sw	t6,124(s10)
80000d58:	34102a73          	csrr	s4,mepc
80000d5c:	34202a73          	csrr	s4,mcause
80000d60:	00b00513          	li	a0,11
80000d64:	00aa0e63          	beq	s4,a0,80000d80 <ecall_handler>
80000d68:	00200513          	li	a0,2
80000d6c:	0aaa0463          	beq	s4,a0,80000e14 <illegal_instr_handler>
80000d70:	34302573          	csrr	a0,mtval
80000d74:	ffffff97          	auipc	t6,0xfffff
80000d78:	560f8f93          	addi	t6,t6,1376 # 800002d4 <test_done>
80000d7c:	000f80e7          	jalr	t6

80000d80 <ecall_handler>:
80000d80:	fffffa17          	auipc	s4,0xfffff
80000d84:	280a0a13          	addi	s4,s4,640 # 80000000 <_start>
80000d88:	000a2023          	sw	zero,0(s4)
80000d8c:	001a2223          	sw	ra,4(s4)
80000d90:	002a2423          	sw	sp,8(s4)
80000d94:	003a2623          	sw	gp,12(s4)
80000d98:	004a2823          	sw	tp,16(s4)
80000d9c:	005a2a23          	sw	t0,20(s4)
80000da0:	006a2c23          	sw	t1,24(s4)
80000da4:	007a2e23          	sw	t2,28(s4)
80000da8:	028a2023          	sw	s0,32(s4)
80000dac:	029a2223          	sw	s1,36(s4)
80000db0:	02aa2423          	sw	a0,40(s4)
80000db4:	02ba2623          	sw	a1,44(s4)
80000db8:	02ca2823          	sw	a2,48(s4)
80000dbc:	02da2a23          	sw	a3,52(s4)
80000dc0:	02ea2c23          	sw	a4,56(s4)
80000dc4:	02fa2e23          	sw	a5,60(s4)
80000dc8:	050a2023          	sw	a6,64(s4)
80000dcc:	051a2223          	sw	a7,68(s4)
80000dd0:	052a2423          	sw	s2,72(s4)
80000dd4:	053a2623          	sw	s3,76(s4)
80000dd8:	054a2823          	sw	s4,80(s4)
80000ddc:	055a2a23          	sw	s5,84(s4)
80000de0:	056a2c23          	sw	s6,88(s4)
80000de4:	057a2e23          	sw	s7,92(s4)
80000de8:	078a2023          	sw	s8,96(s4)
80000dec:	079a2223          	sw	s9,100(s4)
80000df0:	07aa2423          	sw	s10,104(s4)
80000df4:	07ba2623          	sw	s11,108(s4)
80000df8:	07ca2823          	sw	t3,112(s4)
80000dfc:	07da2a23          	sw	t4,116(s4)
80000e00:	07ea2c23          	sw	t5,120(s4)
80000e04:	07fa2e23          	sw	t6,124(s4)
80000e08:	ffffff97          	auipc	t6,0xfffff
80000e0c:	4d4f8f93          	addi	t6,t6,1236 # 800002dc <write_tohost>
80000e10:	000f8067          	jr	t6

80000e14 <illegal_instr_handler>:
80000e14:	34102a73          	csrr	s4,mepc
80000e18:	004a0a13          	addi	s4,s4,4
80000e1c:	341a1073          	csrw	mepc,s4
80000e20:	004d2083          	lw	ra,4(s10)
80000e24:	008d2103          	lw	sp,8(s10)
80000e28:	00cd2183          	lw	gp,12(s10)
80000e2c:	010d2203          	lw	tp,16(s10)
80000e30:	014d2283          	lw	t0,20(s10)
80000e34:	018d2303          	lw	t1,24(s10)
80000e38:	01cd2383          	lw	t2,28(s10)
80000e3c:	020d2403          	lw	s0,32(s10)
80000e40:	024d2483          	lw	s1,36(s10)
80000e44:	028d2503          	lw	a0,40(s10)
80000e48:	02cd2583          	lw	a1,44(s10)
80000e4c:	030d2603          	lw	a2,48(s10)
80000e50:	034d2683          	lw	a3,52(s10)
80000e54:	038d2703          	lw	a4,56(s10)
80000e58:	03cd2783          	lw	a5,60(s10)
80000e5c:	040d2803          	lw	a6,64(s10)
80000e60:	044d2883          	lw	a7,68(s10)
80000e64:	048d2903          	lw	s2,72(s10)
80000e68:	04cd2983          	lw	s3,76(s10)
80000e6c:	050d2a03          	lw	s4,80(s10)
80000e70:	054d2a83          	lw	s5,84(s10)
80000e74:	058d2b03          	lw	s6,88(s10)
80000e78:	05cd2b83          	lw	s7,92(s10)
80000e7c:	060d2c03          	lw	s8,96(s10)
80000e80:	064d2c83          	lw	s9,100(s10)
80000e84:	068d2d03          	lw	s10,104(s10)
80000e88:	06cd2d83          	lw	s11,108(s10)
80000e8c:	070d2e03          	lw	t3,112(s10)
80000e90:	074d2e83          	lw	t4,116(s10)
80000e94:	078d2f03          	lw	t5,120(s10)
80000e98:	07cd2f83          	lw	t6,124(s10)
80000e9c:	07cd0d13          	addi	s10,s10,124
80000ea0:	000d0f33          	add	t5,s10,zero
80000ea4:	340d1d73          	csrrw	s10,mscratch,s10
80000ea8:	30200073          	mret

80000eac <mmode_intr_handler>:
80000eac:	30002a73          	csrr	s4,mstatus
80000eb0:	30402a73          	csrr	s4,mie
80000eb4:	34402a73          	csrr	s4,mip
80000eb8:	344a3a73          	csrrc	s4,mip,s4
80000ebc:	004d2083          	lw	ra,4(s10)
80000ec0:	008d2103          	lw	sp,8(s10)
80000ec4:	00cd2183          	lw	gp,12(s10)
80000ec8:	010d2203          	lw	tp,16(s10)
80000ecc:	014d2283          	lw	t0,20(s10)
80000ed0:	018d2303          	lw	t1,24(s10)
80000ed4:	01cd2383          	lw	t2,28(s10)
80000ed8:	020d2403          	lw	s0,32(s10)
80000edc:	024d2483          	lw	s1,36(s10)
80000ee0:	028d2503          	lw	a0,40(s10)
80000ee4:	02cd2583          	lw	a1,44(s10)
80000ee8:	030d2603          	lw	a2,48(s10)
80000eec:	034d2683          	lw	a3,52(s10)
80000ef0:	038d2703          	lw	a4,56(s10)
80000ef4:	03cd2783          	lw	a5,60(s10)
80000ef8:	040d2803          	lw	a6,64(s10)
80000efc:	044d2883          	lw	a7,68(s10)
80000f00:	048d2903          	lw	s2,72(s10)
80000f04:	04cd2983          	lw	s3,76(s10)
80000f08:	050d2a03          	lw	s4,80(s10)
80000f0c:	054d2a83          	lw	s5,84(s10)
80000f10:	058d2b03          	lw	s6,88(s10)
80000f14:	05cd2b83          	lw	s7,92(s10)
80000f18:	060d2c03          	lw	s8,96(s10)
80000f1c:	064d2c83          	lw	s9,100(s10)
80000f20:	068d2d03          	lw	s10,104(s10)
80000f24:	06cd2d83          	lw	s11,108(s10)
80000f28:	070d2e03          	lw	t3,112(s10)
80000f2c:	074d2e83          	lw	t4,116(s10)
80000f30:	078d2f03          	lw	t5,120(s10)
80000f34:	07cd2f83          	lw	t6,124(s10)
80000f38:	07cd0d13          	addi	s10,s10,124
80000f3c:	000d0f33          	add	t5,s10,zero
80000f40:	340d1d73          	csrrw	s10,mscratch,s10
80000f44:	30200073          	mret

80000f48 <kernel_instr_end>:
80000f48:	00000013          	nop
